
whetstone-bench:     file format elf64-x86-64


Disassembly of section .init:

0000000000001000 <.init>:
    1000:	f3 0f 1e fa          	endbr64
    1004:	48 83 ec 08          	sub    $0x8,%rsp
    1008:	48 8b 05 c1 2f 00 00 	mov    0x2fc1(%rip),%rax        # 3fd0 <exp@plt+0x2f00>
    100f:	48 85 c0             	test   %rax,%rax
    1012:	74 02                	je     1016 <putchar@plt-0x1a>
    1014:	ff d0                	call   *%rax
    1016:	48 83 c4 08          	add    $0x8,%rsp
    101a:	c3                   	ret

Disassembly of section .plt:

0000000000001020 <putchar@plt-0x10>:
    1020:	ff 35 ca 2f 00 00    	push   0x2fca(%rip)        # 3ff0 <exp@plt+0x2f20>
    1026:	ff 25 cc 2f 00 00    	jmp    *0x2fcc(%rip)        # 3ff8 <exp@plt+0x2f28>
    102c:	0f 1f 40 00          	nopl   0x0(%rax)

0000000000001030 <putchar@plt>:
    1030:	ff 25 ca 2f 00 00    	jmp    *0x2fca(%rip)        # 4000 <exp@plt+0x2f30>
    1036:	68 00 00 00 00       	push   $0x0
    103b:	e9 e0 ff ff ff       	jmp    1020 <putchar@plt-0x10>

0000000000001040 <strncmp@plt>:
    1040:	ff 25 c2 2f 00 00    	jmp    *0x2fc2(%rip)        # 4008 <exp@plt+0x2f38>
    1046:	68 01 00 00 00       	push   $0x1
    104b:	e9 d0 ff ff ff       	jmp    1020 <putchar@plt-0x10>

0000000000001050 <puts@plt>:
    1050:	ff 25 ba 2f 00 00    	jmp    *0x2fba(%rip)        # 4010 <exp@plt+0x2f40>
    1056:	68 02 00 00 00       	push   $0x2
    105b:	e9 c0 ff ff ff       	jmp    1020 <putchar@plt-0x10>

0000000000001060 <__stack_chk_fail@plt>:
    1060:	ff 25 b2 2f 00 00    	jmp    *0x2fb2(%rip)        # 4018 <exp@plt+0x2f48>
    1066:	68 03 00 00 00       	push   $0x3
    106b:	e9 b0 ff ff ff       	jmp    1020 <putchar@plt-0x10>

0000000000001070 <printf@plt>:
    1070:	ff 25 aa 2f 00 00    	jmp    *0x2faa(%rip)        # 4020 <exp@plt+0x2f50>
    1076:	68 04 00 00 00       	push   $0x4
    107b:	e9 a0 ff ff ff       	jmp    1020 <putchar@plt-0x10>

0000000000001080 <fputs@plt>:
    1080:	ff 25 a2 2f 00 00    	jmp    *0x2fa2(%rip)        # 4028 <exp@plt+0x2f58>
    1086:	68 05 00 00 00       	push   $0x5
    108b:	e9 90 ff ff ff       	jmp    1020 <putchar@plt-0x10>

0000000000001090 <log@plt>:
    1090:	ff 25 9a 2f 00 00    	jmp    *0x2f9a(%rip)        # 4030 <exp@plt+0x2f60>
    1096:	68 06 00 00 00       	push   $0x6
    109b:	e9 80 ff ff ff       	jmp    1020 <putchar@plt-0x10>

00000000000010a0 <time@plt>:
    10a0:	ff 25 92 2f 00 00    	jmp    *0x2f92(%rip)        # 4038 <exp@plt+0x2f68>
    10a6:	68 07 00 00 00       	push   $0x7
    10ab:	e9 70 ff ff ff       	jmp    1020 <putchar@plt-0x10>

00000000000010b0 <atol@plt>:
    10b0:	ff 25 8a 2f 00 00    	jmp    *0x2f8a(%rip)        # 4040 <exp@plt+0x2f70>
    10b6:	68 08 00 00 00       	push   $0x8
    10bb:	e9 60 ff ff ff       	jmp    1020 <putchar@plt-0x10>

00000000000010c0 <sqrt@plt>:
    10c0:	ff 25 82 2f 00 00    	jmp    *0x2f82(%rip)        # 4048 <exp@plt+0x2f78>
    10c6:	68 09 00 00 00       	push   $0x9
    10cb:	e9 50 ff ff ff       	jmp    1020 <putchar@plt-0x10>

00000000000010d0 <exp@plt>:
    10d0:	ff 25 7a 2f 00 00    	jmp    *0x2f7a(%rip)        # 4050 <exp@plt+0x2f80>
    10d6:	68 0a 00 00 00       	push   $0xa
    10db:	e9 40 ff ff ff       	jmp    1020 <putchar@plt-0x10>

Disassembly of section .text:

00000000000010e0 <.text>:
    10e0:	41 57                	push   %r15
    10e2:	4c 8d 3d 1f 0f 00 00 	lea    0xf1f(%rip),%r15        # 2008 <exp@plt+0xf38>
    10e9:	41 56                	push   %r14
    10eb:	41 55                	push   %r13
    10ed:	41 89 fd             	mov    %edi,%r13d
    10f0:	41 54                	push   %r12
    10f2:	41 bc 01 00 00 00    	mov    $0x1,%r12d
    10f8:	55                   	push   %rbp
    10f9:	31 ed                	xor    %ebp,%ebp
    10fb:	53                   	push   %rbx
    10fc:	bb e8 03 00 00       	mov    $0x3e8,%ebx
    1101:	48 83 ec 38          	sub    $0x38,%rsp
    1105:	64 4c 8b 34 25 28 00 	mov    %fs:0x28,%r14
    110c:	00 00 
    110e:	4c 89 74 24 28       	mov    %r14,0x28(%rsp)
    1113:	49 89 f6             	mov    %rsi,%r14
    1116:	45 39 e5             	cmp    %r12d,%r13d
    1119:	7e 51                	jle    116c <exp@plt+0x9c>
    111b:	4b 8b 3c e6          	mov    (%r14,%r12,8),%rdi
    111f:	ba 02 00 00 00       	mov    $0x2,%edx
    1124:	4c 89 fe             	mov    %r15,%rsi
    1127:	48 89 3c 24          	mov    %rdi,(%rsp)
    112b:	e8 10 ff ff ff       	call   1040 <strncmp@plt>
    1130:	85 c0                	test   %eax,%eax
    1132:	74 2e                	je     1162 <exp@plt+0x92>
    1134:	48 8b 3c 24          	mov    (%rsp),%rdi
    1138:	80 3f 63             	cmpb   $0x63,(%rdi)
    113b:	74 25                	je     1162 <exp@plt+0x92>
    113d:	e8 6e ff ff ff       	call   10b0 <atol@plt>
    1142:	48 89 c3             	mov    %rax,%rbx
    1145:	48 85 c0             	test   %rax,%rax
    1148:	7f 1d                	jg     1167 <exp@plt+0x97>
    114a:	48 8b 35 2f 2f 00 00 	mov    0x2f2f(%rip),%rsi        # 4080 <stderr@GLIBC_2.2.5>
    1151:	48 8d 3d b3 0e 00 00 	lea    0xeb3(%rip),%rdi        # 200b <exp@plt+0xf3b>
    1158:	e8 23 ff ff ff       	call   1080 <fputs@plt>
    115d:	e9 13 03 00 00       	jmp    1475 <exp@plt+0x3a5>
    1162:	bd 01 00 00 00       	mov    $0x1,%ebp
    1167:	49 ff c4             	inc    %r12
    116a:	eb aa                	jmp    1116 <exp@plt+0x46>
    116c:	48 6b c3 0c          	imul   $0xc,%rbx,%rax
    1170:	4c 69 eb 83 03 00 00 	imul   $0x383,%rbx,%r13
    1177:	4c 69 f3 68 02 00 00 	imul   $0x268,%rbx,%r14
    117e:	48 89 04 24          	mov    %rax,(%rsp)
    1182:	48 6b c3 0e          	imul   $0xe,%rbx,%rax
    1186:	4c 6b fb 5d          	imul   $0x5d,%rbx,%r15
    118a:	48 89 44 24 08       	mov    %rax,0x8(%rsp)
    118f:	48 69 c3 d2 00 00 00 	imul   $0xd2,%rbx,%rax
    1196:	48 89 44 24 10       	mov    %rax,0x10(%rsp)
    119b:	31 ff                	xor    %edi,%edi
    119d:	e8 fe fe ff ff       	call   10a0 <time@plt>
    11a2:	f2 0f 10 25 46 0f 00 	movsd  0xf46(%rip),%xmm4        # 20f0 <exp@plt+0x1020>
    11a9:	00 
    11aa:	f2 0f 10 3d 66 0f 00 	movsd  0xf66(%rip),%xmm7        # 2118 <exp@plt+0x1048>
    11b1:	00 
    11b2:	31 d2                	xor    %edx,%edx
    11b4:	f2 44 0f 10 05 3b 0f 	movsd  0xf3b(%rip),%xmm8        # 20f8 <exp@plt+0x1028>
    11bb:	00 00 
    11bd:	49 89 c4             	mov    %rax,%r12
    11c0:	48 8b 05 41 0f 00 00 	mov    0xf41(%rip),%rax        # 2108 <exp@plt+0x1038>
    11c7:	f2 0f 11 3d 19 2f 00 	movsd  %xmm7,0x2f19(%rip)        # 40e8 <stderr@GLIBC_2.2.5+0x68>
    11ce:	00 
    11cf:	0f 28 dc             	movaps %xmm4,%xmm3
    11d2:	0f 28 cc             	movaps %xmm4,%xmm1
    11d5:	0f 28 c4             	movaps %xmm4,%xmm0
    11d8:	48 89 05 19 2f 00 00 	mov    %rax,0x2f19(%rip)        # 40f8 <stderr@GLIBC_2.2.5+0x78>
    11df:	48 8b 05 2a 0f 00 00 	mov    0xf2a(%rip),%rax        # 2110 <exp@plt+0x1040>
    11e6:	41 0f 28 d0          	movaps %xmm8,%xmm2
    11ea:	f2 44 0f 11 05 d5 2e 	movsd  %xmm8,0x2ed5(%rip)        # 40c8 <stderr@GLIBC_2.2.5+0x48>
    11f1:	00 00 
    11f3:	48 89 05 f6 2e 00 00 	mov    %rax,0x2ef6(%rip)        # 40f0 <stderr@GLIBC_2.2.5+0x70>
    11fa:	b8 01 00 00 00       	mov    $0x1,%eax
    11ff:	f2 0f 11 25 c9 2e 00 	movsd  %xmm4,0x2ec9(%rip)        # 40d0 <stderr@GLIBC_2.2.5+0x50>
    1206:	00 
    1207:	f2 0f 11 25 c9 2e 00 	movsd  %xmm4,0x2ec9(%rip)        # 40d8 <stderr@GLIBC_2.2.5+0x58>
    120e:	00 
    120f:	48 8b 34 24          	mov    (%rsp),%rsi
    1213:	48 39 f0             	cmp    %rsi,%rax
    1216:	7f 61                	jg     1279 <exp@plt+0x1a9>
    1218:	f2 0f 58 d0          	addsd  %xmm0,%xmm2
    121c:	48 ff c0             	inc    %rax
    121f:	b2 01                	mov    $0x1,%dl
    1221:	f2 0f 58 d1          	addsd  %xmm1,%xmm2
    1225:	f2 0f 5c d3          	subsd  %xmm3,%xmm2
    1229:	f2 0f 59 15 d7 0e 00 	mulsd  0xed7(%rip),%xmm2        # 2108 <exp@plt+0x1038>
    1230:	00 
    1231:	f2 0f 58 c2          	addsd  %xmm2,%xmm0
    1235:	0f 28 ea             	movaps %xmm2,%xmm5
    1238:	f2 0f 5c c1          	subsd  %xmm1,%xmm0
    123c:	f2 0f 58 c3          	addsd  %xmm3,%xmm0
    1240:	f2 0f 59 05 c0 0e 00 	mulsd  0xec0(%rip),%xmm0        # 2108 <exp@plt+0x1038>
    1247:	00 
    1248:	f2 0f 5c e8          	subsd  %xmm0,%xmm5
    124c:	f2 0f 58 e9          	addsd  %xmm1,%xmm5
    1250:	f2 0f 10 0d b0 0e 00 	movsd  0xeb0(%rip),%xmm1        # 2108 <exp@plt+0x1038>
    1257:	00 
    1258:	f2 0f 58 eb          	addsd  %xmm3,%xmm5
    125c:	f2 0f 59 cd          	mulsd  %xmm5,%xmm1
    1260:	0f 28 e8             	movaps %xmm0,%xmm5
    1263:	f2 0f 5c ea          	subsd  %xmm2,%xmm5
    1267:	f2 0f 58 e9          	addsd  %xmm1,%xmm5
    126b:	f2 0f 58 dd          	addsd  %xmm5,%xmm3
    126f:	f2 0f 59 1d 91 0e 00 	mulsd  0xe91(%rip),%xmm3        # 2108 <exp@plt+0x1038>
    1276:	00 
    1277:	eb 96                	jmp    120f <exp@plt+0x13f>
    1279:	84 d2                	test   %dl,%dl
    127b:	75 0a                	jne    1287 <exp@plt+0x1b7>
    127d:	f2 0f 11 25 5b 2e 00 	movsd  %xmm4,0x2e5b(%rip)        # 40e0 <stderr@GLIBC_2.2.5+0x60>
    1284:	00 
    1285:	eb 20                	jmp    12a7 <exp@plt+0x1d7>
    1287:	f2 0f 11 1d 51 2e 00 	movsd  %xmm3,0x2e51(%rip)        # 40e0 <stderr@GLIBC_2.2.5+0x60>
    128e:	00 
    128f:	f2 0f 11 0d 41 2e 00 	movsd  %xmm1,0x2e41(%rip)        # 40d8 <stderr@GLIBC_2.2.5+0x58>
    1296:	00 
    1297:	f2 0f 11 05 31 2e 00 	movsd  %xmm0,0x2e31(%rip)        # 40d0 <stderr@GLIBC_2.2.5+0x50>
    129e:	00 
    129f:	f2 0f 11 15 21 2e 00 	movsd  %xmm2,0x2e21(%rip)        # 40c8 <stderr@GLIBC_2.2.5+0x48>
    12a6:	00 
    12a7:	ba 01 00 00 00       	mov    $0x1,%edx
    12ac:	48 8d 0d 0d 2e 00 00 	lea    0x2e0d(%rip),%rcx        # 40c0 <stderr@GLIBC_2.2.5+0x40>
    12b3:	48 8b 44 24 08       	mov    0x8(%rsp),%rax
    12b8:	48 39 c2             	cmp    %rax,%rdx
    12bb:	7f 0d                	jg     12ca <exp@plt+0x1fa>
    12bd:	48 89 cf             	mov    %rcx,%rdi
    12c0:	48 ff c2             	inc    %rdx
    12c3:	e8 d1 02 00 00       	call   1599 <exp@plt+0x4c9>
    12c8:	eb e9                	jmp    12b3 <exp@plt+0x1e3>
    12ca:	c7 05 d4 2d 00 00 01 	movl   $0x1,0x2dd4(%rip)        # 40a8 <stderr@GLIBC_2.2.5+0x28>
    12d1:	00 00 00 
    12d4:	31 c9                	xor    %ecx,%ecx
    12d6:	31 d2                	xor    %edx,%edx
    12d8:	b8 01 00 00 00       	mov    $0x1,%eax
    12dd:	c7 05 bd 2d 00 00 02 	movl   $0x2,0x2dbd(%rip)        # 40a4 <stderr@GLIBC_2.2.5+0x24>
    12e4:	00 00 00 
    12e7:	c7 05 af 2d 00 00 03 	movl   $0x3,0x2daf(%rip)        # 40a0 <stderr@GLIBC_2.2.5+0x20>
    12ee:	00 00 00 
    12f1:	48 8b 74 24 10       	mov    0x10(%rsp),%rsi
    12f6:	48 39 f0             	cmp    %rsi,%rax
    12f9:	7f 09                	jg     1304 <exp@plt+0x234>
    12fb:	48 ff c0             	inc    %rax
    12fe:	b1 01                	mov    $0x1,%cl
    1300:	b2 01                	mov    $0x1,%dl
    1302:	eb ed                	jmp    12f1 <exp@plt+0x221>
    1304:	84 c9                	test   %cl,%cl
    1306:	74 0e                	je     1316 <exp@plt+0x246>
    1308:	48 8b 05 11 0e 00 00 	mov    0xe11(%rip),%rax        # 2120 <exp@plt+0x1050>
    130f:	48 89 05 b2 2d 00 00 	mov    %rax,0x2db2(%rip)        # 40c8 <stderr@GLIBC_2.2.5+0x48>
    1316:	84 d2                	test   %dl,%dl
    1318:	74 0e                	je     1328 <exp@plt+0x258>
    131a:	48 8b 05 ff 0d 00 00 	mov    0xdff(%rip),%rax        # 2120 <exp@plt+0x1050>
    1321:	48 89 05 a8 2d 00 00 	mov    %rax,0x2da8(%rip)        # 40d0 <stderr@GLIBC_2.2.5+0x50>
    1328:	f2 44 0f 11 44 24 20 	movsd  %xmm8,0x20(%rsp)
    132f:	b8 01 00 00 00       	mov    $0x1,%eax
    1334:	48 8d 54 24 20       	lea    0x20(%rsp),%rdx
    1339:	4c 39 e8             	cmp    %r13,%rax
    133c:	7f 15                	jg     1353 <exp@plt+0x283>
    133e:	48 89 d7             	mov    %rdx,%rdi
    1341:	41 0f 28 c8          	movaps %xmm8,%xmm1
    1345:	41 0f 28 c0          	movaps %xmm8,%xmm0
    1349:	48 ff c0             	inc    %rax
    134c:	e8 18 03 00 00       	call   1669 <exp@plt+0x599>
    1351:	eb e6                	jmp    1339 <exp@plt+0x269>
    1353:	48 8b 05 ce 0d 00 00 	mov    0xdce(%rip),%rax        # 2128 <exp@plt+0x1058>
    135a:	f2 0f 11 3d 6e 2d 00 	movsd  %xmm7,0x2d6e(%rip)        # 40d0 <stderr@GLIBC_2.2.5+0x50>
    1361:	00 
    1362:	bf 01 00 00 00       	mov    $0x1,%edi
    1367:	f2 44 0f 11 05 58 2d 	movsd  %xmm8,0x2d58(%rip)        # 40c8 <stderr@GLIBC_2.2.5+0x48>
    136e:	00 00 
    1370:	48 89 05 61 2d 00 00 	mov    %rax,0x2d61(%rip)        # 40d8 <stderr@GLIBC_2.2.5+0x58>
    1377:	4c 39 f7             	cmp    %r14,%rdi
    137a:	7f 0a                	jg     1386 <exp@plt+0x2b6>
    137c:	e8 ad 02 00 00       	call   162e <exp@plt+0x55e>
    1381:	48 ff c7             	inc    %rdi
    1384:	eb f1                	jmp    1377 <exp@plt+0x2a7>
    1386:	c7 05 18 2d 00 00 02 	movl   $0x2,0x2d18(%rip)        # 40a8 <stderr@GLIBC_2.2.5+0x28>
    138d:	00 00 00 
    1390:	f2 0f 10 05 68 0d 00 	movsd  0xd68(%rip),%xmm0        # 2100 <exp@plt+0x1030>
    1397:	00 
    1398:	b8 01 00 00 00       	mov    $0x1,%eax
    139d:	c7 05 fd 2c 00 00 03 	movl   $0x3,0x2cfd(%rip)        # 40a4 <stderr@GLIBC_2.2.5+0x24>
    13a4:	00 00 00 
    13a7:	4c 39 f8             	cmp    %r15,%rax
    13aa:	7f 26                	jg     13d2 <exp@plt+0x302>
    13ac:	48 89 44 24 18       	mov    %rax,0x18(%rsp)
    13b1:	e8 da fc ff ff       	call   1090 <log@plt>
    13b6:	f2 0f 5e 05 32 2d 00 	divsd  0x2d32(%rip),%xmm0        # 40f0 <stderr@GLIBC_2.2.5+0x70>
    13bd:	00 
    13be:	e8 0d fd ff ff       	call   10d0 <exp@plt>
    13c3:	e8 f8 fc ff ff       	call   10c0 <sqrt@plt>
    13c8:	48 8b 44 24 18       	mov    0x18(%rsp),%rax
    13cd:	48 ff c0             	inc    %rax
    13d0:	eb d5                	jmp    13a7 <exp@plt+0x2d7>
    13d2:	31 ff                	xor    %edi,%edi
    13d4:	e8 c7 fc ff ff       	call   10a0 <time@plt>
    13d9:	bf 0a 00 00 00       	mov    $0xa,%edi
    13de:	48 89 44 24 18       	mov    %rax,0x18(%rsp)
    13e3:	e8 48 fc ff ff       	call   1030 <putchar@plt>
    13e8:	48 8b 4c 24 18       	mov    0x18(%rsp),%rcx
    13ed:	4c 29 e1             	sub    %r12,%rcx
    13f0:	48 85 c9             	test   %rcx,%rcx
    13f3:	7f 0e                	jg     1403 <exp@plt+0x333>
    13f5:	48 8d 3d 2b 0c 00 00 	lea    0xc2b(%rip),%rdi        # 2027 <exp@plt+0xf57>
    13fc:	e8 4f fc ff ff       	call   1050 <puts@plt>
    1401:	eb 72                	jmp    1475 <exp@plt+0x3a5>
    1403:	31 c0                	xor    %eax,%eax
    1405:	ba 01 00 00 00       	mov    $0x1,%edx
    140a:	48 89 de             	mov    %rbx,%rsi
    140d:	48 89 4c 24 18       	mov    %rcx,0x18(%rsp)
    1412:	48 8d 3d 3d 0c 00 00 	lea    0xc3d(%rip),%rdi        # 2056 <exp@plt+0xf86>
    1419:	e8 52 fc ff ff       	call   1070 <printf@plt>
    141e:	48 8b 4c 24 18       	mov    0x18(%rsp),%rcx
    1423:	f2 48 0f 2a cb       	cvtsi2sd %rbx,%xmm1
    1428:	f2 0f 59 0d 00 0d 00 	mulsd  0xd00(%rip),%xmm1        # 2130 <exp@plt+0x1060>
    142f:	00 
    1430:	48 8d 3d 84 0c 00 00 	lea    0xc84(%rip),%rdi        # 20bb <exp@plt+0xfeb>
    1437:	f3 48 0f 2a c1       	cvtsi2ss %rcx,%xmm0
    143c:	f3 0f 5a c0          	cvtss2sd %xmm0,%xmm0
    1440:	f2 0f 5e c8          	divsd  %xmm0,%xmm1
    1444:	f2 0f 5a c9          	cvtsd2ss %xmm1,%xmm1
    1448:	0f 2f 0d b5 0b 00 00 	comiss 0xbb5(%rip),%xmm1        # 2004 <exp@plt+0xf34>
    144f:	f3 0f 5a c1          	cvtss2sd %xmm1,%xmm0
    1453:	72 0f                	jb     1464 <exp@plt+0x394>
    1455:	48 8d 3d 2a 0c 00 00 	lea    0xc2a(%rip),%rdi        # 2086 <exp@plt+0xfb6>
    145c:	f2 0f 5e 05 d4 0c 00 	divsd  0xcd4(%rip),%xmm0        # 2138 <exp@plt+0x1068>
    1463:	00 
    1464:	b0 01                	mov    $0x1,%al
    1466:	e8 05 fc ff ff       	call   1070 <printf@plt>
    146b:	85 ed                	test   %ebp,%ebp
    146d:	0f 85 28 fd ff ff    	jne    119b <exp@plt+0xcb>
    1473:	eb 05                	jmp    147a <exp@plt+0x3aa>
    1475:	bd 01 00 00 00       	mov    $0x1,%ebp
    147a:	48 8b 44 24 28       	mov    0x28(%rsp),%rax
    147f:	64 48 2b 04 25 28 00 	sub    %fs:0x28,%rax
    1486:	00 00 
    1488:	74 05                	je     148f <exp@plt+0x3bf>
    148a:	e8 d1 fb ff ff       	call   1060 <__stack_chk_fail@plt>
    148f:	48 83 c4 38          	add    $0x38,%rsp
    1493:	89 e8                	mov    %ebp,%eax
    1495:	5b                   	pop    %rbx
    1496:	5d                   	pop    %rbp
    1497:	41 5c                	pop    %r12
    1499:	41 5d                	pop    %r13
    149b:	41 5e                	pop    %r14
    149d:	41 5f                	pop    %r15
    149f:	c3                   	ret
    14a0:	f3 0f 1e fa          	endbr64
    14a4:	31 ed                	xor    %ebp,%ebp
    14a6:	49 89 d1             	mov    %rdx,%r9
    14a9:	5e                   	pop    %rsi
    14aa:	48 89 e2             	mov    %rsp,%rdx
    14ad:	48 83 e4 f0          	and    $0xfffffffffffffff0,%rsp
    14b1:	50                   	push   %rax
    14b2:	54                   	push   %rsp
    14b3:	45 31 c0             	xor    %r8d,%r8d
    14b6:	31 c9                	xor    %ecx,%ecx
    14b8:	48 8d 3d 21 fc ff ff 	lea    -0x3df(%rip),%rdi        # 10e0 <exp@plt+0x10>
    14bf:	ff 15 fb 2a 00 00    	call   *0x2afb(%rip)        # 3fc0 <exp@plt+0x2ef0>
    14c5:	f4                   	hlt
    14c6:	66 2e 0f 1f 84 00 00 	cs nopw 0x0(%rax,%rax,1)
    14cd:	00 00 00 
    14d0:	48 8d 3d 91 2b 00 00 	lea    0x2b91(%rip),%rdi        # 4068 <exp@plt+0x2f98>
    14d7:	48 8d 05 8a 2b 00 00 	lea    0x2b8a(%rip),%rax        # 4068 <exp@plt+0x2f98>
    14de:	48 39 f8             	cmp    %rdi,%rax
    14e1:	74 15                	je     14f8 <exp@plt+0x428>
    14e3:	48 8b 05 de 2a 00 00 	mov    0x2ade(%rip),%rax        # 3fc8 <exp@plt+0x2ef8>
    14ea:	48 85 c0             	test   %rax,%rax
    14ed:	74 09                	je     14f8 <exp@plt+0x428>
    14ef:	ff e0                	jmp    *%rax
    14f1:	0f 1f 80 00 00 00 00 	nopl   0x0(%rax)
    14f8:	c3                   	ret
    14f9:	0f 1f 80 00 00 00 00 	nopl   0x0(%rax)
    1500:	48 8d 3d 61 2b 00 00 	lea    0x2b61(%rip),%rdi        # 4068 <exp@plt+0x2f98>
    1507:	48 8d 35 5a 2b 00 00 	lea    0x2b5a(%rip),%rsi        # 4068 <exp@plt+0x2f98>
    150e:	48 29 fe             	sub    %rdi,%rsi
    1511:	48 89 f0             	mov    %rsi,%rax
    1514:	48 c1 ee 3f          	shr    $0x3f,%rsi
    1518:	48 c1 f8 03          	sar    $0x3,%rax
    151c:	48 01 c6             	add    %rax,%rsi
    151f:	48 d1 fe             	sar    $1,%rsi
    1522:	74 14                	je     1538 <exp@plt+0x468>
    1524:	48 8b 05 ad 2a 00 00 	mov    0x2aad(%rip),%rax        # 3fd8 <exp@plt+0x2f08>
    152b:	48 85 c0             	test   %rax,%rax
    152e:	74 08                	je     1538 <exp@plt+0x468>
    1530:	ff e0                	jmp    *%rax
    1532:	66 0f 1f 44 00 00    	nopw   0x0(%rax,%rax,1)
    1538:	c3                   	ret
    1539:	0f 1f 80 00 00 00 00 	nopl   0x0(%rax)
    1540:	f3 0f 1e fa          	endbr64
    1544:	80 3d 3d 2b 00 00 00 	cmpb   $0x0,0x2b3d(%rip)        # 4088 <stderr@GLIBC_2.2.5+0x8>
    154b:	75 33                	jne    1580 <exp@plt+0x4b0>
    154d:	55                   	push   %rbp
    154e:	48 83 3d 8a 2a 00 00 	cmpq   $0x0,0x2a8a(%rip)        # 3fe0 <exp@plt+0x2f10>
    1555:	00 
    1556:	48 89 e5             	mov    %rsp,%rbp
    1559:	74 0d                	je     1568 <exp@plt+0x498>
    155b:	48 8b 3d fe 2a 00 00 	mov    0x2afe(%rip),%rdi        # 4060 <exp@plt+0x2f90>
    1562:	ff 15 78 2a 00 00    	call   *0x2a78(%rip)        # 3fe0 <exp@plt+0x2f10>
    1568:	e8 63 ff ff ff       	call   14d0 <exp@plt+0x400>
    156d:	c6 05 14 2b 00 00 01 	movb   $0x1,0x2b14(%rip)        # 4088 <stderr@GLIBC_2.2.5+0x8>
    1574:	5d                   	pop    %rbp
    1575:	c3                   	ret
    1576:	66 2e 0f 1f 84 00 00 	cs nopw 0x0(%rax,%rax,1)
    157d:	00 00 00 
    1580:	c3                   	ret
    1581:	66 66 2e 0f 1f 84 00 	data16 cs nopw 0x0(%rax,%rax,1)
    1588:	00 00 00 00 
    158c:	0f 1f 40 00          	nopl   0x0(%rax)
    1590:	f3 0f 1e fa          	endbr64
    1594:	e9 67 ff ff ff       	jmp    1500 <exp@plt+0x430>
    1599:	f2 0f 10 4f 08       	movsd  0x8(%rdi),%xmm1
    159e:	f2 0f 10 47 10       	movsd  0x10(%rdi),%xmm0
    15a3:	b8 06 00 00 00       	mov    $0x6,%eax
    15a8:	f2 0f 10 5f 18       	movsd  0x18(%rdi),%xmm3
    15ad:	f2 0f 10 57 20       	movsd  0x20(%rdi),%xmm2
    15b2:	f2 0f 10 2d 3e 2b 00 	movsd  0x2b3e(%rip),%xmm5        # 40f8 <stderr@GLIBC_2.2.5+0x78>
    15b9:	00 
    15ba:	f2 0f 10 35 26 2b 00 	movsd  0x2b26(%rip),%xmm6        # 40e8 <stderr@GLIBC_2.2.5+0x68>
    15c1:	00 
    15c2:	f2 0f 58 c8          	addsd  %xmm0,%xmm1
    15c6:	f2 0f 58 cb          	addsd  %xmm3,%xmm1
    15ca:	f2 0f 5c ca          	subsd  %xmm2,%xmm1
    15ce:	f2 0f 59 cd          	mulsd  %xmm5,%xmm1
    15d2:	f2 0f 58 c1          	addsd  %xmm1,%xmm0
    15d6:	0f 28 e1             	movaps %xmm1,%xmm4
    15d9:	f2 0f 5c c3          	subsd  %xmm3,%xmm0
    15dd:	f2 0f 58 c2          	addsd  %xmm2,%xmm0
    15e1:	f2 0f 59 c5          	mulsd  %xmm5,%xmm0
    15e5:	f2 0f 5c e0          	subsd  %xmm0,%xmm4
    15e9:	f2 0f 58 e3          	addsd  %xmm3,%xmm4
    15ed:	f2 0f 58 e2          	addsd  %xmm2,%xmm4
    15f1:	0f 28 dc             	movaps %xmm4,%xmm3
    15f4:	0f 28 e0             	movaps %xmm0,%xmm4
    15f7:	f2 0f 59 dd          	mulsd  %xmm5,%xmm3
    15fb:	f2 0f 5c e1          	subsd  %xmm1,%xmm4
    15ff:	f2 0f 58 e3          	addsd  %xmm3,%xmm4
    1603:	f2 0f 58 d4          	addsd  %xmm4,%xmm2
    1607:	f2 0f 5e d6          	divsd  %xmm6,%xmm2
    160b:	ff c8                	dec    %eax
    160d:	75 b3                	jne    15c2 <exp@plt+0x4f2>
    160f:	c7 05 8f 2a 00 00 06 	movl   $0x6,0x2a8f(%rip)        # 40a8 <stderr@GLIBC_2.2.5+0x28>
    1616:	00 00 00 
    1619:	f2 0f 11 4f 08       	movsd  %xmm1,0x8(%rdi)
    161e:	f2 0f 11 47 10       	movsd  %xmm0,0x10(%rdi)
    1623:	f2 0f 11 5f 18       	movsd  %xmm3,0x18(%rdi)
    1628:	f2 0f 11 57 20       	movsd  %xmm2,0x20(%rdi)
    162d:	c3                   	ret
    162e:	48 63 35 6f 2a 00 00 	movslq 0x2a6f(%rip),%rsi        # 40a4 <stderr@GLIBC_2.2.5+0x24>
    1635:	48 8d 05 84 2a 00 00 	lea    0x2a84(%rip),%rax        # 40c0 <stderr@GLIBC_2.2.5+0x40>
    163c:	48 63 0d 65 2a 00 00 	movslq 0x2a65(%rip),%rcx        # 40a8 <stderr@GLIBC_2.2.5+0x28>
    1643:	48 63 15 56 2a 00 00 	movslq 0x2a56(%rip),%rdx        # 40a0 <stderr@GLIBC_2.2.5+0x20>
    164a:	f2 0f 10 04 f0       	movsd  (%rax,%rsi,8),%xmm0
    164f:	f2 0f 11 04 c8       	movsd  %xmm0,(%rax,%rcx,8)
    1654:	f2 0f 10 04 d0       	movsd  (%rax,%rdx,8),%xmm0
    1659:	f2 0f 11 04 f0       	movsd  %xmm0,(%rax,%rsi,8)
    165e:	f2 0f 10 04 c8       	movsd  (%rax,%rcx,8),%xmm0
    1663:	f2 0f 11 04 d0       	movsd  %xmm0,(%rax,%rdx,8)
    1668:	c3                   	ret
    1669:	f2 0f 58 c1          	addsd  %xmm1,%xmm0
    166d:	f2 0f 10 15 83 2a 00 	movsd  0x2a83(%rip),%xmm2        # 40f8 <stderr@GLIBC_2.2.5+0x78>
    1674:	00 
    1675:	f2 0f 59 c2          	mulsd  %xmm2,%xmm0
    1679:	f2 0f 58 c8          	addsd  %xmm0,%xmm1
    167d:	f2 0f 59 ca          	mulsd  %xmm2,%xmm1
    1681:	f2 0f 58 c8          	addsd  %xmm0,%xmm1
    1685:	f2 0f 5e 0d 5b 2a 00 	divsd  0x2a5b(%rip),%xmm1        # 40e8 <stderr@GLIBC_2.2.5+0x68>
    168c:	00 
    168d:	f2 0f 11 0f          	movsd  %xmm1,(%rdi)
    1691:	c3                   	ret

Disassembly of section .fini:

0000000000001694 <.fini>:
    1694:	f3 0f 1e fa          	endbr64
    1698:	48 83 ec 08          	sub    $0x8,%rsp
    169c:	48 83 c4 08          	add    $0x8,%rsp
    16a0:	c3                   	ret
